Certificate:
    Data:
        Version: 3 (0x2)
        Serial Number:
            83:af:60:0c:e2:f5:41:a0
        Signature Algorithm: sha1WithRSAEncryption
        Issuer: C=CN, ST=ZJ, O=\xE6\x99\xBA\xE6\x81\x92\xE8\xBD\xAF\xE4\xBB\xB6, OU=\xE8\xAF\x81\xE4\xB9\xA6\xE6\x8E\x88\xE6\x9D\x83\xE6\x9C\xBA\xE6\x9E\x84, CN=Bintal CA/emailAddress=ca@bintal.org
        Validity
            Not Before: Jan 19 02:39:13 2011 GMT
            Not After : Jan 19 02:39:13 2012 GMT
        Subject: C=CN, ST=ZJ, O=\xE6\x99\xBA\xE6\x81\x92\xE8\xBD\xAF\xE4\xBB\xB6, OU=\xE9\x82\xAE\xE4\xBB\xB6\xE6\x9C\x8D\xE5\x8A\xA1, CN=bintal.org/emailAddress=mail@bintal.org
        Subject Public Key Info:
            Public Key Algorithm: rsaEncryption
            RSA Public Key: (1024 bit)
                Modulus (1024 bit):
                    00:c5:23:9e:59:da:cd:6c:a4:48:2c:01:04:8c:74:
                    b9:86:5b:62:25:b7:4e:e1:11:24:ba:50:f8:3a:5c:
                    66:e5:2b:f9:c7:d5:59:d6:21:65:cf:d1:36:8d:f8:
                    91:47:92:e5:e0:9f:c2:36:60:d5:8c:ce:eb:01:1b:
                    69:3b:64:69:02:2a:d1:f4:f9:7d:8d:92:5c:92:d6:
                    24:a0:db:31:a4:92:60:e8:cb:53:45:02:f5:77:4d:
                    ac:f3:a9:97:eb:b6:c5:11:93:6d:eb:34:91:65:5a:
                    c7:88:7b:be:47:00:42:aa:ce:bc:11:be:80:c6:f5:
                    ed:3b:5c:db:ee:4c:2d:1f:71
                Exponent: 65537 (0x10001)
        X509v3 extensions:
            X509v3 Basic Constraints:
                CA:FALSE
            Netscape Comment:
                OpenSSL Generated Certificate
            X509v3 Subject Key Identifier:
                D5:B5:C0:6E:79:A6:6C:02:A0:45:57:FD:B6:4E:93:53:F0:C5:F0:B6
            X509v3 Authority Key Identifier:
                keyid:49:37:24:F2:A6:9F:08:89:35:58:CC:25:34:D6:56:4C:42:D7:C9:16

    Signature Algorithm: sha1WithRSAEncryption
        42:3b:c0:30:c8:26:f6:36:27:22:3b:7a:62:c3:43:b9:18:29:
        92:83:5d:4f:70:ad:42:a4:2a:ed:65:9c:a7:93:ca:cf:a2:da:
        bf:f6:00:70:59:ae:d3:0f:db:61:2b:05:b2:c5:aa:49:4a:ef:
        59:6f:d7:69:5d:a7:77:c9:36:43:ee:b5:7d:3c:18:94:46:1f:
        1e:ca:6a:5b:55:34:1d:48:ae:e8:58:93:c5:20:f4:e5:0c:7f:
        4c:a8:83:7e:cc:da:46:79:78:19:9c:73:38:70:f3:12:5f:3b:
        b7:74:1d:ce:e8:fa:8b:3d:66:32:43:10:51:a3:a0:17:78:10:
        a5:29
-----BEGIN CERTIFICATE-----
MIIC9zCCAmCgAwIBAgIJAIOvYAzi9UGgMA0GCSqGSIb3DQEBBQUAMIGAMQswCQYD
VQQGEwJDTjELMAkGA1UECBMCWkoxFTATBgNVBAoUDOaZuuaBkui9r+S7tjEbMBkG
A1UECxQS6K+B5Lmm5o6I5p2D5py65p6EMRIwEAYDVQQDEwlCaW50YWwgQ0ExHDAa
BgkqhkiG9w0BCQEWDWNhQGJpbnRhbC5vcmcwHhcNMTEwMTE5MDIzOTEzWhcNMTIw
MTE5MDIzOTEzWjB9MQswCQYDVQQGEwJDTjELMAkGA1UECBMCWkoxFTATBgNVBAoU
DOaZuuaBkui9r+S7tjEVMBMGA1UECxQM6YKu5Lu25pyN5YqhMRMwEQYDVQQDEwpi
aW50YWwub3JnMR4wHAYJKoZIhvcNAQkBFg9tYWlsQGJpbnRhbC5vcmcwgZ8wDQYJ
KoZIhvcNAQEBBQADgY0AMIGJAoGBAMUjnlnazWykSCwBBIx0uYZbYiW3TuERJLpQ
+DpcZuUr+cfVWdYhZc/RNo34kUeS5eCfwjZg1YzO6wEbaTtkaQIq0fT5fY2SXJLW
JKDbMaSSYOjLU0UC9XdNrPOpl+u2xRGTbes0kWVax4h7vkcAQqrOvBG+gMb17Ttc
2+5MLR9xAgMBAAGjezB5MAkGA1UdEwQCMAAwLAYJYIZIAYb4QgENBB8WHU9wZW5T
U0wgR2VuZXJhdGVkIENlcnRpZmljYXRlMB0GA1UdDgQWBBTVtcBueaZsAqBFV/22
TpNT8MXwtjAfBgNVHSMEGDAWgBRJNyTypp8IiTVYzCU01lZMQtfJFjANBgkqhkiG
9w0BAQUFAAOBgQBCO8AwyCb2NiciO3piw0O5GCmSg11PcK1CpCrtZZynk8rPotq/
9gBwWa7TD9thKwWyxapJSu9Zb9dpXad3yTZD7rV9PBiURh8eympbVTQdSK7oWJPF
IPTlDH9MqIN+zNpGeXgZnHM4cPMSXzu3dB3O6PqLPWYyQxBRo6AXeBClKQ==
-----END CERTIFICATE-----
